target datalayout = "e-m:e-p270:32:32-p271:32:32-p272:64:64-i64:64-i128:128-f80:128-n8:16:32:64-S128"
target triple = "x86_64-pc-linux-gnu"

@_ZTV10PortsModel = external unnamed_addr constant { [53 x ptr] }, align 8

; Function Attrs: mustprogress null_pointer_is_valid sspstrong uwtable
define void @_ZN10PortsModel8populateEv(ptr noundef align 8 dereferenceable_or_null(64) %0) #0 align 2 {
  %2 = alloca ptr, align 8
  %3 = alloca ptr, align 8
  store ptr %0, ptr %2, align 8
  %4 = load ptr, ptr %2, align 8
  call void @llvm.lifetime.start.p0(i64 8, ptr %3) #18
  %5 = call ptr @get_serv_port_hashtable()
  store ptr %5, ptr %3, align 8
  %6 = load ptr, ptr %3, align 8
  %7 = icmp ne ptr %6, null
  br i1 %7, label %8, label %10

8:                                                ; preds = %1
  %9 = load ptr, ptr %3, align 8
  call void @wmem_map_foreach(ptr noundef %9, ptr noundef @_ZL29serv_port_hash_to_qstringlistPvS_S_, ptr noundef %4)
  br label %10

10:                                               ; preds = %8, %1
  call void @llvm.lifetime.end.p0(i64 8, ptr %3) #18
  ret void
}

; Function Attrs: mustprogress null_pointer_is_valid sspstrong uwtable
define void @_ZN10PortsModelC2EP7QObject(ptr noundef align 8 dereferenceable_or_null(64) %0, ptr noundef %1) unnamed_addr #0 align 2 personality ptr @__gxx_personality_v0 {
  %3 = alloca ptr, align 8
  %4 = alloca ptr, align 8
  %5 = alloca ptr, align 8
  %6 = alloca i32, align 4
  store ptr %0, ptr %3, align 8
  store ptr %1, ptr %4, align 8
  %7 = load ptr, ptr %3, align 8
  %8 = load ptr, ptr %4, align 8
  call void @_ZN20AStringListListModelC2EP7QObject(ptr noundef align 8 dereferenceable_or_null(64) %7, ptr noundef %8)
  store ptr getelementptr inbounds inrange(-16, 408) ({ [53 x ptr] }, ptr @_ZTV10PortsModel, i32 0, i32 0, i32 2), ptr %7, align 8
  invoke void @_ZN10PortsModel8populateEv(ptr noundef align 8 dereferenceable_or_null(64) %7)
          to label %9 unwind label %10

9:                                                ; preds = %2
  ret void

10:                                               ; preds = %2
  %11 = landingpad { ptr, i32 }
          cleanup
  %12 = extractvalue { ptr, i32 } %11, 0
  store ptr %12, ptr %5, align 8
  %13 = extractvalue { ptr, i32 } %11, 1
  store i32 %13, ptr %6, align 4
  call void @_ZN20AStringListListModelD2Ev(ptr noundef align 8 dereferenceable_or_null(64) %7) #18
  br label %14

14:                                               ; preds = %10
  %15 = load ptr, ptr %5, align 8
  %16 = load i32, ptr %6, align 4
  %17 = insertvalue { ptr, i32 } poison, ptr %15, 0
  %18 = insertvalue { ptr, i32 } %17, i32 %16, 1
  resume { ptr, i32 } %18
}