; Function Attrs: mustprogress null_pointer_is_valid sspstrong uwtable
define void @_ZN10PortsModelC2EP7QObject(ptr noundef align 8 dereferenceable_or_null(64) %0, ptr noundef %1) unnamed_addr #0 align 2 personality ptr @__gxx_personality_v0 {
  tail call void @_ZN20AStringListListModelC2EP7QObject(ptr noundef align 8 dereferenceable_or_null(64) %0, ptr noundef %1)
  store ptr getelementptr inbounds nuw inrange(-16, 408) (i8, ptr @_ZTV10PortsModel, i64 16), ptr %0, align 8
  %3 = invoke ptr @get_serv_port_hashtable()
          to label %.noexc unwind label %5

.noexc:                                           ; preds = %2
  %.not.i = icmp eq ptr %3, null
  br i1 %.not.i, label %_ZN10PortsModel8populateEv.exit, label %4

4:                                                ; preds = %.noexc
  invoke void @wmem_map_foreach(ptr noundef nonnull %3, ptr noundef nonnull @_ZL29serv_port_hash_to_qstringlistPvS_S_, ptr noundef align 8 dereferenceable_or_null(64) %0)
          to label %_ZN10PortsModel8populateEv.exit unwind label %5

_ZN10PortsModel8populateEv.exit:                  ; preds = %.noexc, %4
  ret void

5:                                                ; preds = %4, %2
  %6 = landingpad { ptr, i32 }
          cleanup
  tail call void @_ZN20AStringListListModelD2Ev(ptr noundef align 8 dereferenceable_or_null(64) %0) #14
  resume { ptr, i32 } %6
}